target datalayout = "e-m:e-p270:32:32-p271:32:32-p272:64:64-i64:64-i128:128-f80:128-n8:16:32:64-S128"
target triple = "x86_64-pc-linux-gnu"

@.str = private unnamed_addr constant [31 x i8] c"../openssl/crypto/asn1/a_int.c\00", align 1
@__func__.ossl_c2i_uint64_int = private unnamed_addr constant [20 x i8] c"ossl_c2i_uint64_int\00", align 1
@__func__.asn1_get_uint64 = private unnamed_addr constant [16 x i8] c"asn1_get_uint64\00", align 1

; Function Attrs: nounwind uwtable
define internal i32 @asn1_get_uint64(ptr noundef %0, ptr noundef %1, i64 noundef %2) #0 {
  %4 = alloca i32, align 4
  %5 = alloca ptr, align 8
  %6 = alloca ptr, align 8
  %7 = alloca i64, align 8
  %8 = alloca i64, align 8
  %9 = alloca i64, align 8
  %10 = alloca i32, align 4
  store ptr %0, ptr %5, align 8, !tbaa !28
  store ptr %1, ptr %6, align 8, !tbaa !18
  store i64 %2, ptr %7, align 8, !tbaa !19
  call void @llvm.lifetime.start.p0(i64 8, ptr %8) #4
  call void @llvm.lifetime.start.p0(i64 8, ptr %9) #4
  %11 = load i64, ptr %7, align 8, !tbaa !19
  %12 = icmp ugt i64 %11, 8
  br i1 %12, label %13, label %14

13:                                               ; preds = %3
  call void @ERR_new()
  call void @ERR_set_debug(ptr noundef @.str, i32 noundef 219, ptr noundef @__func__.asn1_get_uint64)
  call void (i32, i32, ptr, ...) @ERR_set_error(i32 noundef 13, i32 noundef 223, ptr noundef null)
  store i32 0, ptr %4, align 4
  store i32 1, ptr %10, align 4
  br label %39

14:                                               ; preds = %3
  %15 = load ptr, ptr %6, align 8, !tbaa !18
  %16 = icmp eq ptr %15, null
  br i1 %16, label %17, label %18

17:                                               ; preds = %14
  store i32 0, ptr %4, align 4
  store i32 1, ptr %10, align 4
  br label %39

18:                                               ; preds = %14
  store i64 0, ptr %9, align 8, !tbaa !19
  store i64 0, ptr %8, align 8, !tbaa !19
  br label %19

19:                                               ; preds = %33, %18
  %20 = load i64, ptr %8, align 8, !tbaa !19
  %21 = load i64, ptr %7, align 8, !tbaa !19
  %22 = icmp ult i64 %20, %21
  br i1 %22, label %23, label %36

23:                                               ; preds = %19
  %24 = load i64, ptr %9, align 8, !tbaa !19
  %25 = shl i64 %24, 8
  store i64 %25, ptr %9, align 8, !tbaa !19
  %26 = load ptr, ptr %6, align 8, !tbaa !18
  %27 = load i64, ptr %8, align 8, !tbaa !19
  %28 = getelementptr inbounds nuw i8, ptr %26, i64 %27
  %29 = load i8, ptr %28, align 1, !tbaa !20
  %30 = zext i8 %29 to i64
  %31 = load i64, ptr %9, align 8, !tbaa !19
  %32 = or i64 %31, %30
  store i64 %32, ptr %9, align 8, !tbaa !19
  br label %33

33:                                               ; preds = %23
  %34 = load i64, ptr %8, align 8, !tbaa !19
  %35 = add i64 %34, 1
  store i64 %35, ptr %8, align 8, !tbaa !19
  br label %19, !llvm.loop !32

36:                                               ; preds = %19
  %37 = load i64, ptr %9, align 8, !tbaa !19
  %38 = load ptr, ptr %5, align 8, !tbaa !28
  store i64 %37, ptr %38, align 8, !tbaa !19
  store i32 1, ptr %4, align 4
  store i32 1, ptr %10, align 4
  br label %39

39:                                               ; preds = %36, %17, %13
  call void @llvm.lifetime.end.p0(i64 8, ptr %9) #4
  call void @llvm.lifetime.end.p0(i64 8, ptr %8) #4
  %40 = load i32, ptr %4, align 4
  ret i32 %40
}

; Function Attrs: nounwind uwtable
define i32 @ossl_c2i_uint64_int(ptr noundef %0, ptr noundef %1, ptr noundef %2, i64 noundef %3) #0 {
  %5 = alloca i32, align 4
  %6 = alloca ptr, align 8
  %7 = alloca ptr, align 8
  %8 = alloca ptr, align 8
  %9 = alloca i64, align 8
  %10 = alloca [8 x i8], align 1
  %11 = alloca i64, align 8
  %12 = alloca i32, align 4
  store ptr %0, ptr %6, align 8, !tbaa !28
  store ptr %1, ptr %7, align 8, !tbaa !25
  store ptr %2, ptr %8, align 8, !tbaa !14
  store i64 %3, ptr %9, align 8, !tbaa !19
  call void @llvm.lifetime.start.p0(i64 8, ptr %10) #4
  call void @llvm.lifetime.start.p0(i64 8, ptr %11) #4
  %13 = load ptr, ptr %8, align 8, !tbaa !14
  %14 = load ptr, ptr %13, align 8, !tbaa !18
  %15 = load i64, ptr %9, align 8, !tbaa !19
  %16 = call i64 @c2i_ibuf(ptr noundef null, ptr noundef null, ptr noundef %14, i64 noundef %15)
  store i64 %16, ptr %11, align 8, !tbaa !19
  %17 = load i64, ptr %11, align 8, !tbaa !19
  %18 = icmp eq i64 %17, 0
  br i1 %18, label %19, label %20

19:                                               ; preds = %4
  store i32 0, ptr %5, align 4
  store i32 1, ptr %12, align 4
  br label %35

20:                                               ; preds = %4
  %21 = load i64, ptr %11, align 8, !tbaa !19
  %22 = icmp ugt i64 %21, 8
  br i1 %22, label %23, label %24

23:                                               ; preds = %20
  call void @ERR_new()
  call void @ERR_set_debug(ptr noundef @.str, i32 noundef 632, ptr noundef @__func__.ossl_c2i_uint64_int)
  call void (i32, i32, ptr, ...) @ERR_set_error(i32 noundef 13, i32 noundef 223, ptr noundef null)
  store i32 0, ptr %5, align 4
  store i32 1, ptr %12, align 4
  br label %35

24:                                               ; preds = %20
  %25 = getelementptr inbounds [8 x i8], ptr %10, i64 0, i64 0
  %26 = load ptr, ptr %7, align 8, !tbaa !25
  %27 = load ptr, ptr %8, align 8, !tbaa !14
  %28 = load ptr, ptr %27, align 8, !tbaa !18
  %29 = load i64, ptr %9, align 8, !tbaa !19
  %30 = call i64 @c2i_ibuf(ptr noundef %25, ptr noundef %26, ptr noundef %28, i64 noundef %29)
  %31 = load ptr, ptr %6, align 8, !tbaa !28
  %32 = getelementptr inbounds [8 x i8], ptr %10, i64 0, i64 0
  %33 = load i64, ptr %11, align 8, !tbaa !19
  %34 = call i32 @asn1_get_uint64(ptr noundef %31, ptr noundef %32, i64 noundef %33)
  store i32 %34, ptr %5, align 4
  store i32 1, ptr %12, align 4
  br label %35

35:                                               ; preds = %24, %23, %19
  call void @llvm.lifetime.end.p0(i64 8, ptr %11) #4
  call void @llvm.lifetime.end.p0(i64 8, ptr %10) #4
  %36 = load i32, ptr %5, align 4
  ret i32 %36
}