; Function Attrs: nounwind uwtable
define range(i32 0, 2) i32 @ossl_c2i_uint64_int(ptr noundef writeonly captures(none) %0, ptr noundef captures(address_is_null) %1, ptr noundef readonly captures(none) %2, i64 noundef %3) local_unnamed_addr #0 {
  %5 = alloca [8 x i8], align 1
  call void @llvm.lifetime.start.p0(i64 8, ptr nonnull %5) #6
  %6 = load ptr, ptr %2, align 8, !tbaa !16
  %7 = tail call fastcc i64 @c2i_ibuf(ptr noundef null, ptr noundef null, ptr noundef %6, i64 noundef %3)
  %8 = icmp eq i64 %7, 0
  br i1 %8, label %21, label %9

9:                                                ; preds = %4
  %10 = icmp ugt i64 %7, 8
  br i1 %10, label %11, label %12

11:                                               ; preds = %9
  tail call void @ERR_new() #6
  tail call void @ERR_set_debug(ptr noundef nonnull @.str, i32 noundef 632, ptr noundef nonnull @__func__.ossl_c2i_uint64_int) #6
  tail call void (i32, i32, ptr, ...) @ERR_set_error(i32 noundef 13, i32 noundef 223, ptr noundef null) #6
  br label %21

12:                                               ; preds = %9
  %13 = load ptr, ptr %2, align 8, !tbaa !16
  %14 = call fastcc i64 @c2i_ibuf(ptr noundef nonnull %5, ptr noundef %1, ptr noundef %13, i64 noundef %3)
  br label %.lr.ph.i

.lr.ph.i:                                         ; preds = %12, %.lr.ph.i
  %.016.i = phi i64 [ %19, %.lr.ph.i ], [ 0, %12 ]
  %.01115.i = phi i64 [ %20, %.lr.ph.i ], [ 0, %12 ]
  %15 = shl i64 %.016.i, 8
  %16 = getelementptr inbounds nuw i8, ptr %5, i64 %.01115.i
  %17 = load i8, ptr %16, align 1, !tbaa !13
  %18 = zext i8 %17 to i64
  %19 = or disjoint i64 %15, %18
  %20 = add nuw nsw i64 %.01115.i, 1
  %exitcond.not.i = icmp eq i64 %20, %7
  br i1 %exitcond.not.i, label %asn1_get_uint64.exit, label %.lr.ph.i, !llvm.loop !23

asn1_get_uint64.exit:                             ; preds = %.lr.ph.i
  store i64 %19, ptr %0, align 8, !tbaa !22
  br label %21

21:                                               ; preds = %4, %asn1_get_uint64.exit, %11
  %.0 = phi i32 [ 0, %11 ], [ 1, %asn1_get_uint64.exit ], [ 0, %4 ]
  call void @llvm.lifetime.end.p0(i64 8, ptr nonnull %5) #6
  ret i32 %.0
}